target datalayout = "e-m:e-p270:32:32-p271:32:32-p272:64:64-i64:64-i128:128-f80:128-n8:16:32:64-S128"
target triple = "x86_64-pc-linux-gnu"

%struct.Vec_Int_t_ = type { i32, i32, ptr }
%struct.Vec_Wrd_t_ = type { i32, i32, ptr }

; Function Attrs: inlinehint nounwind uwtable
define internal void @Abc_TtXorBit(ptr noundef %0, i32 noundef %1) #2 {
  %3 = alloca ptr, align 8
  %4 = alloca i32, align 4
  store ptr %0, ptr %3, align 8, !tbaa !47
  store i32 %1, ptr %4, align 4, !tbaa !8
  %5 = load i32, ptr %4, align 4, !tbaa !8
  %6 = and i32 %5, 63
  %7 = zext i32 %6 to i64
  %8 = shl i64 1, %7
  %9 = load ptr, ptr %3, align 8, !tbaa !47
  %10 = load i32, ptr %4, align 4, !tbaa !8
  %11 = ashr i32 %10, 6
  %12 = sext i32 %11 to i64
  %13 = getelementptr inbounds i64, ptr %9, i64 %12
  %14 = load i64, ptr %13, align 8, !tbaa !46
  %15 = xor i64 %14, %8
  store i64 %15, ptr %13, align 8, !tbaa !46
  ret void
}

; Function Attrs: inlinehint nounwind uwtable
define internal i32 @Abc_TtGetBit(ptr noundef %0, i32 noundef %1) #2 {
  %3 = alloca ptr, align 8
  %4 = alloca i32, align 4
  store ptr %0, ptr %3, align 8, !tbaa !47
  store i32 %1, ptr %4, align 4, !tbaa !8
  %5 = load ptr, ptr %3, align 8, !tbaa !47
  %6 = load i32, ptr %4, align 4, !tbaa !8
  %7 = ashr i32 %6, 6
  %8 = sext i32 %7 to i64
  %9 = getelementptr inbounds i64, ptr %5, i64 %8
  %10 = load i64, ptr %9, align 8, !tbaa !46
  %11 = load i32, ptr %4, align 4, !tbaa !8
  %12 = and i32 %11, 63
  %13 = zext i32 %12 to i64
  %14 = lshr i64 %10, %13
  %15 = trunc i64 %14 to i32
  %16 = and i32 %15, 1
  ret i32 %16
}

; Function Attrs: inlinehint nounwind uwtable
define internal ptr @Vec_WrdEntryP(ptr noundef %0, i32 noundef %1) #2 {
  %3 = alloca ptr, align 8
  %4 = alloca i32, align 4
  store ptr %0, ptr %3, align 8, !tbaa !10
  store i32 %1, ptr %4, align 4, !tbaa !8
  %5 = load ptr, ptr %3, align 8, !tbaa !10
  %6 = getelementptr inbounds nuw %struct.Vec_Wrd_t_, ptr %5, i32 0, i32 2
  %7 = load ptr, ptr %6, align 8, !tbaa !37
  %8 = load i32, ptr %4, align 4, !tbaa !8
  %9 = sext i32 %8 to i64
  %10 = getelementptr inbounds i64, ptr %7, i64 %9
  ret ptr %10
}

; Function Attrs: inlinehint nounwind uwtable
define internal i32 @Vec_IntEntry(ptr noundef %0, i32 noundef %1) #2 {
  %3 = alloca ptr, align 8
  %4 = alloca i32, align 4
  store ptr %0, ptr %3, align 8, !tbaa !33
  store i32 %1, ptr %4, align 4, !tbaa !8
  %5 = load ptr, ptr %3, align 8, !tbaa !33
  %6 = getelementptr inbounds nuw %struct.Vec_Int_t_, ptr %5, i32 0, i32 2
  %7 = load ptr, ptr %6, align 8, !tbaa !58
  %8 = load i32, ptr %4, align 4, !tbaa !8
  %9 = sext i32 %8 to i64
  %10 = getelementptr inbounds i32, ptr %7, i64 %9
  %11 = load i32, ptr %10, align 4, !tbaa !8
  ret i32 %11
}

; Function Attrs: inlinehint nounwind uwtable
define internal i32 @Vec_IntSize(ptr noundef %0) #2 {
  %2 = alloca ptr, align 8
  store ptr %0, ptr %2, align 8, !tbaa !33
  %3 = load ptr, ptr %2, align 8, !tbaa !33
  %4 = getelementptr inbounds nuw %struct.Vec_Int_t_, ptr %3, i32 0, i32 1
  %5 = load i32, ptr %4, align 4, !tbaa !34
  ret i32 %5
}

; Function Attrs: nounwind uwtable
define void @Gia_ManPatUpdateOne(ptr noundef %0, ptr noundef %1, i32 noundef %2, i32 noundef %3, ptr noundef %4) #0 {
  %6 = alloca ptr, align 8
  %7 = alloca ptr, align 8
  %8 = alloca i32, align 4
  %9 = alloca i32, align 4
  %10 = alloca ptr, align 8
  %11 = alloca i32, align 4
  %12 = alloca i32, align 4
  %13 = alloca ptr, align 8
  store ptr %0, ptr %6, align 8, !tbaa !3
  store ptr %1, ptr %7, align 8, !tbaa !10
  store i32 %2, ptr %8, align 4, !tbaa !8
  store i32 %3, ptr %9, align 4, !tbaa !8
  store ptr %4, ptr %10, align 8, !tbaa !33
  call void @llvm.lifetime.start.p0(i64 4, ptr %11) #13
  call void @llvm.lifetime.start.p0(i64 4, ptr %12) #13
  store i32 0, ptr %11, align 4, !tbaa !8
  br label %14

14:                                               ; preds = %40, %5
  %15 = load i32, ptr %11, align 4, !tbaa !8
  %16 = load ptr, ptr %10, align 8, !tbaa !33
  %17 = call i32 @Vec_IntSize(ptr noundef %16)
  %18 = icmp slt i32 %15, %17
  br i1 %18, label %19, label %23

19:                                               ; preds = %14
  %20 = load ptr, ptr %10, align 8, !tbaa !33
  %21 = load i32, ptr %11, align 4, !tbaa !8
  %22 = call i32 @Vec_IntEntry(ptr noundef %20, i32 noundef %21)
  store i32 %22, ptr %12, align 4, !tbaa !8
  br label %23

23:                                               ; preds = %19, %14
  %24 = phi i1 [ false, %14 ], [ true, %19 ]
  br i1 %24, label %25, label %43

25:                                               ; preds = %23
  call void @llvm.lifetime.start.p0(i64 8, ptr %13) #13
  %26 = load ptr, ptr %7, align 8, !tbaa !10
  %27 = load i32, ptr %11, align 4, !tbaa !8
  %28 = load i32, ptr %9, align 4, !tbaa !8
  %29 = mul nsw i32 %27, %28
  %30 = call ptr @Vec_WrdEntryP(ptr noundef %26, i32 noundef %29)
  store ptr %30, ptr %13, align 8, !tbaa !47
  %31 = load ptr, ptr %13, align 8, !tbaa !47
  %32 = load i32, ptr %8, align 4, !tbaa !8
  %33 = call i32 @Abc_TtGetBit(ptr noundef %31, i32 noundef %32)
  %34 = load i32, ptr %12, align 4, !tbaa !8
  %35 = icmp ne i32 %33, %34
  br i1 %35, label %36, label %39

36:                                               ; preds = %25
  %37 = load ptr, ptr %13, align 8, !tbaa !47
  %38 = load i32, ptr %8, align 4, !tbaa !8
  call void @Abc_TtXorBit(ptr noundef %37, i32 noundef %38)
  br label %39

39:                                               ; preds = %36, %25
  call void @llvm.lifetime.end.p0(i64 8, ptr %13) #13
  br label %40

40:                                               ; preds = %39
  %41 = load i32, ptr %11, align 4, !tbaa !8
  %42 = add nsw i32 %41, 1
  store i32 %42, ptr %11, align 4, !tbaa !8
  br label %14, !llvm.loop !319

43:                                               ; preds = %23
  call void @llvm.lifetime.end.p0(i64 4, ptr %12) #13
  call void @llvm.lifetime.end.p0(i64 4, ptr %11) #13
  ret void
}