; Function Attrs: nofree norecurse nosync nounwind memory(readwrite, inaccessiblemem: none) uwtable
define void @Gia_ManPatUpdateOne(ptr noundef readnone captures(none) %0, ptr noundef readonly captures(none) %1, i32 noundef %2, i32 noundef %3, ptr noundef readonly captures(none) %4) local_unnamed_addr #0 {
  %6 = getelementptr i8, ptr %4, i64 4
  %.val = load i32, ptr %6, align 4, !tbaa !28
  %7 = icmp sgt i32 %.val, 0
  br i1 %7, label %.lr.ph, label %.critedge

.lr.ph:                                           ; preds = %5
  %8 = getelementptr i8, ptr %4, i64 8
  %.val12 = load ptr, ptr %8, align 8, !tbaa !29
  %9 = getelementptr i8, ptr %1, i64 8
  %.val13 = load ptr, ptr %9, align 8, !tbaa !31
  %10 = ashr i32 %2, 6
  %11 = sext i32 %10 to i64
  %invariant.gep = getelementptr i64, ptr %.val13, i64 %11
  %12 = and i32 %2, 63
  %13 = zext nneg i32 %12 to i64
  %14 = shl nuw i64 1, %13
  %15 = sext i32 %3 to i64
  %wide.trip.count = zext nneg i32 %.val to i64
  br label %16

16:                                               ; preds = %.lr.ph, %26
  %indvars.iv = phi i64 [ 0, %.lr.ph ], [ %indvars.iv.next, %26 ]
  %17 = getelementptr inbounds nuw i32, ptr %.val12, i64 %indvars.iv
  %18 = load i32, ptr %17, align 4, !tbaa !30
  %19 = mul nsw i64 %indvars.iv, %15
  %gep = getelementptr i64, ptr %invariant.gep, i64 %19
  %20 = load i64, ptr %gep, align 8, !tbaa !41
  %21 = lshr i64 %20, %13
  %22 = trunc i64 %21 to i32
  %23 = and i32 %22, 1
  %.not = icmp eq i32 %23, %18
  br i1 %.not, label %26, label %24

24:                                               ; preds = %16
  %25 = xor i64 %20, %14
  store i64 %25, ptr %gep, align 8, !tbaa !41
  br label %26

26:                                               ; preds = %24, %16
  %indvars.iv.next = add nuw nsw i64 %indvars.iv, 1
  %exitcond.not = icmp eq i64 %indvars.iv.next, %wide.trip.count
  br i1 %exitcond.not, label %.critedge, label %16, !llvm.loop !307

.critedge:                                        ; preds = %26, %5
  ret void
}